target datalayout = "e-m:e-p270:32:32-p271:32:32-p272:64:64-i64:64-i128:128-f80:128-n8:16:32:64-S128"
target triple = "x86_64-unknown-linux-gnu"

%"class.icu_75::Locale" = type <{ %"class.icu_75::UObject", [12 x i8], [6 x i8], [4 x i8], [2 x i8], i32, [4 x i8], ptr, [157 x i8], [3 x i8], ptr, i8, [7 x i8] }>
%"class.icu_75::UObject" = type { ptr }

; Function Attrs: mustprogress nounwind uwtable
define internal noundef signext i8 @_ZL9U_FAILURE10UErrorCode(i32 noundef %code) #0 {
entry:
  %code.addr = alloca i32, align 4
  store i32 %code, ptr %code.addr, align 4
  %0 = load i32, ptr %code.addr, align 4
  %cmp = icmp sgt i32 %0, 0
  %conv = zext i1 %cmp to i8
  ret i8 %conv
}

; Function Attrs: mustprogress uwtable
define void @_ZN6icu_756Locale12initBaseNameER10UErrorCode(ptr noundef nonnull align 8 dereferenceable(217) %this, ptr noundef nonnull align 4 dereferenceable(4) %status) #1 align 2 {
entry:
  %this.addr = alloca ptr, align 8
  %status.addr = alloca ptr, align 8
  %atPtr = alloca ptr, align 8
  %eqPtr = alloca ptr, align 8
  %baseNameLength = alloca i32, align 4
  store ptr %this, ptr %this.addr, align 8
  store ptr %status, ptr %status.addr, align 8
  %this1 = load ptr, ptr %this.addr, align 8
  %0 = load ptr, ptr %status.addr, align 8
  %1 = load i32, ptr %0, align 4
  %call = call noundef signext i8 @_ZL9U_FAILURE10UErrorCode(i32 noundef %1)
  %tobool = icmp ne i8 %call, 0
  br i1 %tobool, label %if.then, label %if.end

if.then:                                          ; preds = %entry
  br label %if.end27

if.end:                                           ; preds = %entry
  %fullName = getelementptr inbounds %"class.icu_75::Locale", ptr %this1, i32 0, i32 7
  %2 = load ptr, ptr %fullName, align 8
  %call2 = call noundef ptr @strchr(ptr noundef %2, i32 noundef 64) #13
  store ptr %call2, ptr %atPtr, align 8
  %fullName3 = getelementptr inbounds %"class.icu_75::Locale", ptr %this1, i32 0, i32 7
  %3 = load ptr, ptr %fullName3, align 8
  %call4 = call noundef ptr @strchr(ptr noundef %3, i32 noundef 61) #13
  store ptr %call4, ptr %eqPtr, align 8
  %4 = load ptr, ptr %atPtr, align 8
  %tobool5 = icmp ne ptr %4, null
  br i1 %tobool5, label %land.lhs.true, label %if.else

land.lhs.true:                                    ; preds = %if.end
  %5 = load ptr, ptr %eqPtr, align 8
  %tobool6 = icmp ne ptr %5, null
  br i1 %tobool6, label %land.lhs.true7, label %if.else

land.lhs.true7:                                   ; preds = %land.lhs.true
  %6 = load ptr, ptr %atPtr, align 8
  %7 = load ptr, ptr %eqPtr, align 8
  %cmp = icmp ult ptr %6, %7
  br i1 %cmp, label %if.then8, label %if.else

if.then8:                                         ; preds = %land.lhs.true7
  %8 = load ptr, ptr %atPtr, align 8
  %fullName9 = getelementptr inbounds %"class.icu_75::Locale", ptr %this1, i32 0, i32 7
  %9 = load ptr, ptr %fullName9, align 8
  %sub.ptr.lhs.cast = ptrtoint ptr %8 to i64
  %sub.ptr.rhs.cast = ptrtoint ptr %9 to i64
  %sub.ptr.sub = sub i64 %sub.ptr.lhs.cast, %sub.ptr.rhs.cast
  %conv = trunc i64 %sub.ptr.sub to i32
  store i32 %conv, ptr %baseNameLength, align 4
  %10 = load i32, ptr %baseNameLength, align 4
  %add = add nsw i32 %10, 1
  %conv10 = sext i32 %add to i64
  %call11 = call noalias ptr @uprv_malloc_75(i64 noundef %conv10) #11
  %baseName = getelementptr inbounds %"class.icu_75::Locale", ptr %this1, i32 0, i32 10
  store ptr %call11, ptr %baseName, align 8
  %baseName12 = getelementptr inbounds %"class.icu_75::Locale", ptr %this1, i32 0, i32 10
  %11 = load ptr, ptr %baseName12, align 8
  %cmp13 = icmp eq ptr %11, null
  br i1 %cmp13, label %if.then14, label %if.end15

if.then14:                                        ; preds = %if.then8
  %12 = load ptr, ptr %status.addr, align 8
  store i32 7, ptr %12, align 4
  br label %if.end27

if.end15:                                         ; preds = %if.then8
  %baseName16 = getelementptr inbounds %"class.icu_75::Locale", ptr %this1, i32 0, i32 10
  %13 = load ptr, ptr %baseName16, align 8
  %fullName17 = getelementptr inbounds %"class.icu_75::Locale", ptr %this1, i32 0, i32 7
  %14 = load ptr, ptr %fullName17, align 8
  %15 = load i32, ptr %baseNameLength, align 4
  %conv18 = sext i32 %15 to i64
  %call19 = call ptr @strncpy(ptr noundef %13, ptr noundef %14, i64 noundef %conv18) #10
  %baseName20 = getelementptr inbounds %"class.icu_75::Locale", ptr %this1, i32 0, i32 10
  %16 = load ptr, ptr %baseName20, align 8
  %17 = load i32, ptr %baseNameLength, align 4
  %idxprom = sext i32 %17 to i64
  %arrayidx = getelementptr inbounds i8, ptr %16, i64 %idxprom
  store i8 0, ptr %arrayidx, align 1
  %variantBegin = getelementptr inbounds %"class.icu_75::Locale", ptr %this1, i32 0, i32 5
  %18 = load i32, ptr %variantBegin, align 8
  %19 = load i32, ptr %baseNameLength, align 4
  %cmp21 = icmp sgt i32 %18, %19
  br i1 %cmp21, label %if.then22, label %if.end24

if.then22:                                        ; preds = %if.end15
  %20 = load i32, ptr %baseNameLength, align 4
  %variantBegin23 = getelementptr inbounds %"class.icu_75::Locale", ptr %this1, i32 0, i32 5
  store i32 %20, ptr %variantBegin23, align 8
  br label %if.end24

if.end24:                                         ; preds = %if.then22, %if.end15
  br label %if.end27

if.else:                                          ; preds = %land.lhs.true7, %land.lhs.true, %if.end
  %fullName25 = getelementptr inbounds %"class.icu_75::Locale", ptr %this1, i32 0, i32 7
  %21 = load ptr, ptr %fullName25, align 8
  %baseName26 = getelementptr inbounds %"class.icu_75::Locale", ptr %this1, i32 0, i32 10
  store ptr %21, ptr %baseName26, align 8
  br label %if.end27

if.end27:                                         ; preds = %if.else, %if.end24, %if.then14, %if.then
  ret void
}