; Function Attrs: mustprogress uwtable
define void @_ZN6icu_756Locale12initBaseNameER10UErrorCode(ptr nocapture noundef nonnull align 8 dereferenceable(217) %this, ptr nocapture noundef nonnull align 4 dereferenceable(4) %status) local_unnamed_addr #1 align 2 {
entry:
  %0 = load i32, ptr %status, align 4
  %cmp.i = icmp slt i32 %0, 1
  br i1 %cmp.i, label %if.end, label %if.end27

if.end:                                           ; preds = %entry
  %fullName = getelementptr inbounds i8, ptr %this, i64 40
  %1 = load ptr, ptr %fullName, align 8
  %call2 = tail call noundef ptr @strchr(ptr noundef nonnull dereferenceable(1) %1, i32 noundef 64) #23
  %call4 = tail call noundef ptr @strchr(ptr noundef nonnull dereferenceable(1) %1, i32 noundef 61) #23
  %tobool5 = icmp ne ptr %call2, null
  %cmp = icmp ult ptr %call2, %call4
  %or.cond10 = and i1 %tobool5, %cmp
  br i1 %or.cond10, label %if.then8, label %if.else

if.then8:                                         ; preds = %if.end
  %sub.ptr.lhs.cast = ptrtoint ptr %call2 to i64
  %sub.ptr.rhs.cast = ptrtoint ptr %1 to i64
  %sub.ptr.sub = sub i64 %sub.ptr.lhs.cast, %sub.ptr.rhs.cast
  %conv = trunc i64 %sub.ptr.sub to i32
  %add = shl i64 %sub.ptr.sub, 32
  %sext = add i64 %add, 4294967296
  %conv10 = ashr exact i64 %sext, 32
  %call11 = tail call noalias ptr @uprv_malloc_75(i64 noundef %conv10) #21
  %baseName = getelementptr inbounds i8, ptr %this, i64 208
  store ptr %call11, ptr %baseName, align 8
  %cmp13 = icmp eq ptr %call11, null
  br i1 %cmp13, label %if.then14, label %if.end15

if.then14:                                        ; preds = %if.then8
  store i32 7, ptr %status, align 4
  br label %if.end27

if.end15:                                         ; preds = %if.then8
  %2 = load ptr, ptr %fullName, align 8
  %conv18 = ashr exact i64 %add, 32
  %call19 = tail call ptr @strncpy(ptr noundef nonnull %call11, ptr noundef %2, i64 noundef %conv18) #20
  %arrayidx = getelementptr inbounds i8, ptr %call11, i64 %conv18
  store i8 0, ptr %arrayidx, align 1
  %variantBegin = getelementptr inbounds i8, ptr %this, i64 32
  %3 = load i32, ptr %variantBegin, align 8
  %cmp21 = icmp sgt i32 %3, %conv
  br i1 %cmp21, label %if.then22, label %if.end27

if.then22:                                        ; preds = %if.end15
  store i32 %conv, ptr %variantBegin, align 8
  br label %if.end27

if.else:                                          ; preds = %if.end
  %baseName26 = getelementptr inbounds i8, ptr %this, i64 208
  store ptr %1, ptr %baseName26, align 8
  br label %if.end27

if.end27:                                         ; preds = %if.end15, %if.then22, %entry, %if.else, %if.then14
  ret void
}